; Function Attrs: mustprogress nounwind uwtable
define internal void @_ZN4node9inspector12_GLOBAL__N_112WriteRequest7CleanupEP10uv_write_si(ptr noundef %req, i32 %status) #0 align 2 {
entry:
  %0 = ptrtoint ptr %req to i64
  %sub.i.i.i = add i64 %0, -32
  %1 = inttoptr i64 %sub.i.i.i to ptr
  %isnull = icmp eq i64 %sub.i.i.i, 0
  br i1 %isnull, label %delete.end, label %delete.notnull

delete.notnull:                                   ; preds = %entry
  %storage.i = getelementptr inbounds i8, ptr %1, i64 8
  %2 = load ptr, ptr %storage.i, align 8
  %tobool.not.i.i.i.i = icmp eq ptr %2, null
  br i1 %tobool.not.i.i.i.i, label %_ZN4node9inspector12_GLOBAL__N_112WriteRequestD2Ev.exit, label %if.then.i.i.i.i

if.then.i.i.i.i:                                  ; preds = %delete.notnull
  tail call void @_ZdlPv(ptr noundef nonnull %2) #22
  br label %_ZN4node9inspector12_GLOBAL__N_112WriteRequestD2Ev.exit

_ZN4node9inspector12_GLOBAL__N_112WriteRequestD2Ev.exit: ; preds = %delete.notnull, %if.then.i.i.i.i
  tail call void @_ZNSaIcED2Ev(ptr noundef nonnull align 1 dereferenceable(1) %storage.i) #19
  tail call void @_ZdlPv(ptr noundef nonnull %1) #22
  br label %delete.end

delete.end:                                       ; preds = %_ZN4node9inspector12_GLOBAL__N_112WriteRequestD2Ev.exit, %entry
  ret void
}